; Function Attrs: nounwind uwtable
define dso_local void @update_default_partition_oid(i32 noundef %0, i32 noundef %1) local_unnamed_addr #0 {
  %3 = tail call ptr @table_open(i32 noundef 3350, i32 noundef 3) #5
  %4 = zext i32 %0 to i64
  %5 = tail call ptr @SearchSysCacheCopy(i32 noundef 45, i64 noundef %4, i64 noundef 0, i64 noundef 0, i64 noundef 0) #5
  %.not = icmp eq ptr %5, null
  br i1 %.not, label %6, label %9

6:                                                ; preds = %2
  %7 = tail call zeroext i1 @errstart_cold(i32 noundef 21, ptr noundef null) #6
  tail call void @llvm.assume(i1 %7)
  %8 = tail call i32 (ptr, ...) @errmsg_internal(ptr noundef nonnull @.str.4, i32 noundef %0) #5
  tail call void @errfinish(ptr noundef nonnull @.str.1, i32 noundef 352, ptr noundef nonnull @__func__.update_default_partition_oid) #5
  unreachable

9:                                                ; preds = %2
  %10 = getelementptr i8, ptr %5, i64 16
  %.val = load ptr, ptr %10, align 8
  %11 = getelementptr inbounds nuw i8, ptr %.val, i64 22
  %12 = load i8, ptr %11, align 2
  %13 = zext i8 %12 to i64
  %14 = getelementptr inbounds nuw i8, ptr %.val, i64 %13
  %15 = getelementptr inbounds nuw i8, ptr %14, i64 8
  store i32 %1, ptr %15, align 4
  %16 = getelementptr inbounds nuw i8, ptr %5, i64 4
  tail call void @CatalogTupleUpdate(ptr noundef %3, ptr noundef nonnull %16, ptr noundef nonnull %5) #5
  tail call void @heap_freetuple(ptr noundef nonnull %5) #5
  tail call void @table_close(ptr noundef %3, i32 noundef 3) #5
  ret void
}